target datalayout = "e-m:e-p270:32:32-p271:32:32-p272:64:64-i64:64-i128:128-f80:128-n8:16:32:64-S128"
target triple = "x86_64-pc-linux-gnu"

%struct.Vec_Int_t_ = type { i32, i32, ptr }
%struct.Vec_Ptr_t_ = type { i32, i32, ptr }
%struct.Gia_Man_t_ = type { ptr, ptr, i32, i32, i32, i32, ptr, ptr, i32, i32, i32, ptr, ptr, %struct.Vec_Int_t_, %struct.Vec_Int_t_, i32, i32, i32, %struct.Vec_Int_t_, ptr, ptr, ptr, i32, i32, i32, i32, ptr, ptr, ptr, ptr, ptr, i32, i32, ptr, i32, ptr, ptr, ptr, ptr, ptr, ptr, ptr, ptr, ptr, ptr, ptr, ptr, ptr, ptr, ptr, ptr, ptr, ptr, %struct.Vec_Int_t_, %struct.Vec_Int_t_, ptr, ptr, ptr, ptr, ptr, ptr, ptr, ptr, ptr, ptr, ptr, ptr, ptr, ptr, ptr, ptr, ptr, ptr, ptr, ptr, ptr, i32, float, float, ptr, ptr, i32, ptr, ptr, ptr, ptr, ptr, ptr, ptr, ptr, ptr, ptr, ptr, ptr, ptr, ptr, ptr, i64, i64, ptr, ptr, i32, i32, i32, i32, i32, i32, i32, i32, i32, i32, i32, i32, ptr, ptr, ptr, ptr, ptr, ptr, ptr, ptr, i32, i32, i32, ptr, i32, i32, ptr, ptr, ptr, ptr, ptr, ptr, i32, i32, ptr, %struct.Vec_Int_t_, %struct.Vec_Int_t_, %struct.Vec_Int_t_, ptr, ptr, ptr, i32, i32, i32, i32, ptr, ptr, ptr, ptr, ptr }

; Function Attrs: inlinehint nounwind uwtable
define internal i32 @Vec_IntEntry(ptr noundef %0, i32 noundef %1) #3 {
  %3 = alloca ptr, align 8
  %4 = alloca i32, align 4
  store ptr %0, ptr %3, align 8, !tbaa !15
  store i32 %1, ptr %4, align 4, !tbaa !20
  %5 = load ptr, ptr %3, align 8, !tbaa !15
  %6 = getelementptr inbounds nuw %struct.Vec_Int_t_, ptr %5, i32 0, i32 2
  %7 = load ptr, ptr %6, align 8, !tbaa !26
  %8 = load i32, ptr %4, align 4, !tbaa !20
  %9 = sext i32 %8 to i64
  %10 = getelementptr inbounds i32, ptr %7, i64 %9
  %11 = load i32, ptr %10, align 4, !tbaa !20
  ret i32 %11
}

; Function Attrs: inlinehint nounwind uwtable
define internal i32 @Gia_ObjCopyArray(ptr noundef %0, i32 noundef %1) #3 {
  %3 = alloca ptr, align 8
  %4 = alloca i32, align 4
  store ptr %0, ptr %3, align 8, !tbaa !3
  store i32 %1, ptr %4, align 4, !tbaa !20
  %5 = load ptr, ptr %3, align 8, !tbaa !3
  %6 = getelementptr inbounds nuw %struct.Gia_Man_t_, ptr %5, i32 0, i32 53
  %7 = load i32, ptr %4, align 4, !tbaa !20
  %8 = call i32 @Vec_IntEntry(ptr noundef %6, i32 noundef %7)
  ret i32 %8
}

; Function Attrs: inlinehint nounwind uwtable
define internal i32 @Gia_ObjId(ptr noundef %0, ptr noundef %1) #3 {
  %3 = alloca ptr, align 8
  %4 = alloca ptr, align 8
  store ptr %0, ptr %3, align 8, !tbaa !3
  store ptr %1, ptr %4, align 8, !tbaa !39
  %5 = load ptr, ptr %4, align 8, !tbaa !39
  %6 = load ptr, ptr %3, align 8, !tbaa !3
  %7 = getelementptr inbounds nuw %struct.Gia_Man_t_, ptr %6, i32 0, i32 6
  %8 = load ptr, ptr %7, align 8, !tbaa !65
  %9 = ptrtoint ptr %5 to i64
  %10 = ptrtoint ptr %8 to i64
  %11 = sub i64 %9, %10
  %12 = sdiv exact i64 %11, 12
  %13 = trunc i64 %12 to i32
  ret i32 %13
}

; Function Attrs: inlinehint nounwind uwtable
define internal i32 @Abc_LitNot(i32 noundef %0) #3 {
  %2 = alloca i32, align 4
  store i32 %0, ptr %2, align 4, !tbaa !20
  %3 = load i32, ptr %2, align 4, !tbaa !20
  %4 = xor i32 %3, 1
  ret i32 %4
}

; Function Attrs: inlinehint nounwind uwtable
define internal i32 @Abc_Var2Lit(i32 noundef %0, i32 noundef %1) #3 {
  %3 = alloca i32, align 4
  %4 = alloca i32, align 4
  store i32 %0, ptr %3, align 4, !tbaa !20
  store i32 %1, ptr %4, align 4, !tbaa !20
  %5 = load i32, ptr %3, align 4, !tbaa !20
  %6 = load i32, ptr %3, align 4, !tbaa !20
  %7 = add nsw i32 %5, %6
  %8 = load i32, ptr %4, align 4, !tbaa !20
  %9 = add nsw i32 %7, %8
  ret i32 %9
}

; Function Attrs: inlinehint nounwind uwtable
define internal i32 @Gia_IsComplement(ptr noundef %0) #3 {
  %2 = alloca ptr, align 8
  store ptr %0, ptr %2, align 8, !tbaa !39
  %3 = load ptr, ptr %2, align 8, !tbaa !39
  %4 = ptrtoint ptr %3 to i64
  %5 = and i64 %4, 1
  %6 = trunc i64 %5 to i32
  ret i32 %6
}

; Function Attrs: inlinehint nounwind uwtable
define internal i32 @Gia_Min2ObjSatId(ptr noundef %0, ptr noundef %1) #3 {
  %3 = alloca ptr, align 8
  %4 = alloca ptr, align 8
  store ptr %0, ptr %3, align 8, !tbaa !3
  store ptr %1, ptr %4, align 8, !tbaa !39
  %5 = load ptr, ptr %3, align 8, !tbaa !3
  %6 = load ptr, ptr %3, align 8, !tbaa !3
  %7 = load ptr, ptr %4, align 8, !tbaa !39
  %8 = call i32 @Gia_ObjId(ptr noundef %6, ptr noundef %7)
  %9 = call i32 @Gia_ObjCopyArray(ptr noundef %5, i32 noundef %8)
  ret i32 %9
}

; Function Attrs: inlinehint nounwind uwtable
define internal ptr @Gia_Regular(ptr noundef %0) #3 {
  %2 = alloca ptr, align 8
  store ptr %0, ptr %2, align 8, !tbaa !39
  %3 = load ptr, ptr %2, align 8, !tbaa !39
  %4 = ptrtoint ptr %3 to i64
  %5 = and i64 %4, -2
  %6 = inttoptr i64 %5 to ptr
  ret ptr %6
}

; Function Attrs: inlinehint nounwind uwtable
define internal ptr @Vec_PtrEntry(ptr noundef %0, i32 noundef %1) #3 {
  %3 = alloca ptr, align 8
  %4 = alloca i32, align 4
  store ptr %0, ptr %3, align 8, !tbaa !27
  store i32 %1, ptr %4, align 4, !tbaa !20
  %5 = load ptr, ptr %3, align 8, !tbaa !27
  %6 = getelementptr inbounds nuw %struct.Vec_Ptr_t_, ptr %5, i32 0, i32 2
  %7 = load ptr, ptr %6, align 8, !tbaa !31
  %8 = load i32, ptr %4, align 4, !tbaa !20
  %9 = sext i32 %8 to i64
  %10 = getelementptr inbounds ptr, ptr %7, i64 %9
  %11 = load ptr, ptr %10, align 8, !tbaa !48
  ret ptr %11
}

; Function Attrs: inlinehint nounwind uwtable
define internal i32 @Vec_PtrSize(ptr noundef %0) #3 {
  %2 = alloca ptr, align 8
  store ptr %0, ptr %2, align 8, !tbaa !27
  %3 = load ptr, ptr %2, align 8, !tbaa !27
  %4 = getelementptr inbounds nuw %struct.Vec_Ptr_t_, ptr %3, i32 0, i32 1
  %5 = load i32, ptr %4, align 4, !tbaa !28
  ret i32 %5
}

; Function Attrs: nounwind uwtable
define void @Gia_Min2AddClausesSuper(ptr noundef %0, ptr noundef %1, ptr noundef %2, ptr noundef %3) #0 {
  %5 = alloca ptr, align 8
  %6 = alloca ptr, align 8
  %7 = alloca ptr, align 8
  %8 = alloca ptr, align 8
  %9 = alloca i32, align 4
  %10 = alloca ptr, align 8
  %11 = alloca ptr, align 8
  %12 = alloca i32, align 4
  %13 = alloca i32, align 4
  %14 = alloca i32, align 4
  store ptr %0, ptr %5, align 8, !tbaa !3
  store ptr %1, ptr %6, align 8, !tbaa !39
  store ptr %2, ptr %7, align 8, !tbaa !27
  store ptr %3, ptr %8, align 8, !tbaa !104
  call void @llvm.lifetime.start.p0(i64 4, ptr %9) #11
  store i32 0, ptr %9, align 4, !tbaa !20
  call void @llvm.lifetime.start.p0(i64 8, ptr %10) #11
  call void @llvm.lifetime.start.p0(i64 8, ptr %11) #11
  call void @llvm.lifetime.start.p0(i64 4, ptr %12) #11
  call void @llvm.lifetime.start.p0(i64 4, ptr %13) #11
  call void @llvm.lifetime.start.p0(i64 4, ptr %14) #11
  %15 = load ptr, ptr %7, align 8, !tbaa !27
  %16 = call i32 @Vec_PtrSize(ptr noundef %15)
  %17 = add nsw i32 %16, 1
  store i32 %17, ptr %12, align 4, !tbaa !20
  %18 = load i32, ptr %12, align 4, !tbaa !20
  %19 = sext i32 %18 to i64
  %20 = mul i64 4, %19
  %21 = call noalias ptr @malloc(i64 noundef %20) #13
  store ptr %21, ptr %11, align 8, !tbaa !105
  store i32 0, ptr %14, align 4, !tbaa !20
  br label %22

22:                                               ; preds = %83, %4
  %23 = load i32, ptr %14, align 4, !tbaa !20
  %24 = load ptr, ptr %7, align 8, !tbaa !27
  %25 = call i32 @Vec_PtrSize(ptr noundef %24)
  %26 = icmp slt i32 %23, %25
  br i1 %26, label %27, label %31

27:                                               ; preds = %22
  %28 = load ptr, ptr %7, align 8, !tbaa !27
  %29 = load i32, ptr %14, align 4, !tbaa !20
  %30 = call ptr @Vec_PtrEntry(ptr noundef %28, i32 noundef %29)
  store ptr %30, ptr %10, align 8, !tbaa !39
  br label %31

31:                                               ; preds = %27, %22
  %32 = phi i1 [ false, %22 ], [ true, %27 ]
  br i1 %32, label %33, label %86

33:                                               ; preds = %31
  %34 = load ptr, ptr %5, align 8, !tbaa !3
  %35 = load ptr, ptr %10, align 8, !tbaa !39
  %36 = call ptr @Gia_Regular(ptr noundef %35)
  %37 = call i32 @Gia_Min2ObjSatId(ptr noundef %34, ptr noundef %36)
  %38 = load ptr, ptr %10, align 8, !tbaa !39
  %39 = call i32 @Gia_IsComplement(ptr noundef %38)
  %40 = call i32 @Abc_Var2Lit(i32 noundef %37, i32 noundef %39)
  %41 = load ptr, ptr %11, align 8, !tbaa !105
  %42 = getelementptr inbounds i32, ptr %41, i64 0
  store i32 %40, ptr %42, align 4, !tbaa !20
  %43 = load ptr, ptr %5, align 8, !tbaa !3
  %44 = load ptr, ptr %6, align 8, !tbaa !39
  %45 = call i32 @Gia_Min2ObjSatId(ptr noundef %43, ptr noundef %44)
  %46 = call i32 @Abc_Var2Lit(i32 noundef %45, i32 noundef 1)
  %47 = load ptr, ptr %11, align 8, !tbaa !105
  %48 = getelementptr inbounds i32, ptr %47, i64 1
  store i32 %46, ptr %48, align 4, !tbaa !20
  %49 = load i32, ptr %9, align 4, !tbaa !20
  %50 = icmp ne i32 %49, 0
  br i1 %50, label %51, label %79

51:                                               ; preds = %33
  %52 = load ptr, ptr %10, align 8, !tbaa !39
  %53 = call ptr @Gia_Regular(ptr noundef %52)
  %54 = load i64, ptr %53, align 4
  %55 = lshr i64 %54, 63
  %56 = trunc i64 %55 to i32
  %57 = icmp ne i32 %56, 0
  br i1 %57, label %58, label %65

58:                                               ; preds = %51
  %59 = load ptr, ptr %11, align 8, !tbaa !105
  %60 = getelementptr inbounds i32, ptr %59, i64 0
  %61 = load i32, ptr %60, align 4, !tbaa !20
  %62 = call i32 @Abc_LitNot(i32 noundef %61)
  %63 = load ptr, ptr %11, align 8, !tbaa !105
  %64 = getelementptr inbounds i32, ptr %63, i64 0
  store i32 %62, ptr %64, align 4, !tbaa !20
  br label %65

65:                                               ; preds = %58, %51
  %66 = load ptr, ptr %6, align 8, !tbaa !39
  %67 = load i64, ptr %66, align 4
  %68 = lshr i64 %67, 63
  %69 = trunc i64 %68 to i32
  %70 = icmp ne i32 %69, 0
  br i1 %70, label %71, label %78

71:                                               ; preds = %65
  %72 = load ptr, ptr %11, align 8, !tbaa !105
  %73 = getelementptr inbounds i32, ptr %72, i64 1
  %74 = load i32, ptr %73, align 4, !tbaa !20
  %75 = call i32 @Abc_LitNot(i32 noundef %74)
  %76 = load ptr, ptr %11, align 8, !tbaa !105
  %77 = getelementptr inbounds i32, ptr %76, i64 1
  store i32 %75, ptr %77, align 4, !tbaa !20
  br label %78

78:                                               ; preds = %71, %65
  br label %79

79:                                               ; preds = %78, %33
  %80 = load ptr, ptr %8, align 8, !tbaa !104
  %81 = load ptr, ptr %11, align 8, !tbaa !105
  %82 = call i32 @satoko_add_clause(ptr noundef %80, ptr noundef %81, i32 noundef 2)
  store i32 %82, ptr %13, align 4, !tbaa !20
  br label %83

83:                                               ; preds = %79
  %84 = load i32, ptr %14, align 4, !tbaa !20
  %85 = add nsw i32 %84, 1
  store i32 %85, ptr %14, align 4, !tbaa !20
  br label %22, !llvm.loop !106

86:                                               ; preds = %31
  store i32 0, ptr %14, align 4, !tbaa !20
  br label %87

87:                                               ; preds = %135, %86
  %88 = load i32, ptr %14, align 4, !tbaa !20
  %89 = load ptr, ptr %7, align 8, !tbaa !27
  %90 = call i32 @Vec_PtrSize(ptr noundef %89)
  %91 = icmp slt i32 %88, %90
  br i1 %91, label %92, label %96

92:                                               ; preds = %87
  %93 = load ptr, ptr %7, align 8, !tbaa !27
  %94 = load i32, ptr %14, align 4, !tbaa !20
  %95 = call ptr @Vec_PtrEntry(ptr noundef %93, i32 noundef %94)
  store ptr %95, ptr %10, align 8, !tbaa !39
  br label %96

96:                                               ; preds = %92, %87
  %97 = phi i1 [ false, %87 ], [ true, %92 ]
  br i1 %97, label %98, label %138

98:                                               ; preds = %96
  %99 = load ptr, ptr %5, align 8, !tbaa !3
  %100 = load ptr, ptr %10, align 8, !tbaa !39
  %101 = call ptr @Gia_Regular(ptr noundef %100)
  %102 = call i32 @Gia_Min2ObjSatId(ptr noundef %99, ptr noundef %101)
  %103 = load ptr, ptr %10, align 8, !tbaa !39
  %104 = call i32 @Gia_IsComplement(ptr noundef %103)
  %105 = icmp ne i32 %104, 0
  %106 = xor i1 %105, true
  %107 = zext i1 %106 to i32
  %108 = call i32 @Abc_Var2Lit(i32 noundef %102, i32 noundef %107)
  %109 = load ptr, ptr %11, align 8, !tbaa !105
  %110 = load i32, ptr %14, align 4, !tbaa !20
  %111 = sext i32 %110 to i64
  %112 = getelementptr inbounds i32, ptr %109, i64 %111
  store i32 %108, ptr %112, align 4, !tbaa !20
  %113 = load i32, ptr %9, align 4, !tbaa !20
  %114 = icmp ne i32 %113, 0
  br i1 %114, label %115, label %134

115:                                              ; preds = %98
  %116 = load ptr, ptr %10, align 8, !tbaa !39
  %117 = call ptr @Gia_Regular(ptr noundef %116)
  %118 = load i64, ptr %117, align 4
  %119 = lshr i64 %118, 63
  %120 = trunc i64 %119 to i32
  %121 = icmp ne i32 %120, 0
  br i1 %121, label %122, label %133

122:                                              ; preds = %115
  %123 = load ptr, ptr %11, align 8, !tbaa !105
  %124 = load i32, ptr %14, align 4, !tbaa !20
  %125 = sext i32 %124 to i64
  %126 = getelementptr inbounds i32, ptr %123, i64 %125
  %127 = load i32, ptr %126, align 4, !tbaa !20
  %128 = call i32 @Abc_LitNot(i32 noundef %127)
  %129 = load ptr, ptr %11, align 8, !tbaa !105
  %130 = load i32, ptr %14, align 4, !tbaa !20
  %131 = sext i32 %130 to i64
  %132 = getelementptr inbounds i32, ptr %129, i64 %131
  store i32 %128, ptr %132, align 4, !tbaa !20
  br label %133

133:                                              ; preds = %122, %115
  br label %134

134:                                              ; preds = %133, %98
  br label %135

135:                                              ; preds = %134
  %136 = load i32, ptr %14, align 4, !tbaa !20
  %137 = add nsw i32 %136, 1
  store i32 %137, ptr %14, align 4, !tbaa !20
  br label %87, !llvm.loop !107

138:                                              ; preds = %96
  %139 = load ptr, ptr %5, align 8, !tbaa !3
  %140 = load ptr, ptr %6, align 8, !tbaa !39
  %141 = call i32 @Gia_Min2ObjSatId(ptr noundef %139, ptr noundef %140)
  %142 = call i32 @Abc_Var2Lit(i32 noundef %141, i32 noundef 0)
  %143 = load ptr, ptr %11, align 8, !tbaa !105
  %144 = load i32, ptr %12, align 4, !tbaa !20
  %145 = sub nsw i32 %144, 1
  %146 = sext i32 %145 to i64
  %147 = getelementptr inbounds i32, ptr %143, i64 %146
  store i32 %142, ptr %147, align 4, !tbaa !20
  %148 = load i32, ptr %9, align 4, !tbaa !20
  %149 = icmp ne i32 %148, 0
  br i1 %149, label %150, label %170

150:                                              ; preds = %138
  %151 = load ptr, ptr %6, align 8, !tbaa !39
  %152 = load i64, ptr %151, align 4
  %153 = lshr i64 %152, 63
  %154 = trunc i64 %153 to i32
  %155 = icmp ne i32 %154, 0
  br i1 %155, label %156, label %169

156:                                              ; preds = %150
  %157 = load ptr, ptr %11, align 8, !tbaa !105
  %158 = load i32, ptr %12, align 4, !tbaa !20
  %159 = sub nsw i32 %158, 1
  %160 = sext i32 %159 to i64
  %161 = getelementptr inbounds i32, ptr %157, i64 %160
  %162 = load i32, ptr %161, align 4, !tbaa !20
  %163 = call i32 @Abc_LitNot(i32 noundef %162)
  %164 = load ptr, ptr %11, align 8, !tbaa !105
  %165 = load i32, ptr %12, align 4, !tbaa !20
  %166 = sub nsw i32 %165, 1
  %167 = sext i32 %166 to i64
  %168 = getelementptr inbounds i32, ptr %164, i64 %167
  store i32 %163, ptr %168, align 4, !tbaa !20
  br label %169

169:                                              ; preds = %156, %150
  br label %170

170:                                              ; preds = %169, %138
  %171 = load ptr, ptr %8, align 8, !tbaa !104
  %172 = load ptr, ptr %11, align 8, !tbaa !105
  %173 = load i32, ptr %12, align 4, !tbaa !20
  %174 = call i32 @satoko_add_clause(ptr noundef %171, ptr noundef %172, i32 noundef %173)
  store i32 %174, ptr %13, align 4, !tbaa !20
  %175 = load ptr, ptr %11, align 8, !tbaa !105
  %176 = icmp ne ptr %175, null
  br i1 %176, label %177, label %179

177:                                              ; preds = %170
  %178 = load ptr, ptr %11, align 8, !tbaa !105
  call void @free(ptr noundef %178) #11
  store ptr null, ptr %11, align 8, !tbaa !105
  br label %180

179:                                              ; preds = %170
  br label %180

180:                                              ; preds = %179, %177
  call void @llvm.lifetime.end.p0(i64 4, ptr %14) #11
  call void @llvm.lifetime.end.p0(i64 4, ptr %13) #11
  call void @llvm.lifetime.end.p0(i64 4, ptr %12) #11
  call void @llvm.lifetime.end.p0(i64 8, ptr %11) #11
  call void @llvm.lifetime.end.p0(i64 8, ptr %10) #11
  call void @llvm.lifetime.end.p0(i64 4, ptr %9) #11
  ret void
}